; Function Attrs: mustprogress uwtable
define hidden void @_ZN6google8protobuf8compiler4rust23GenerateAccessorExternCENS2_7ContextINS0_15FieldDescriptorEEE(ptr nocapture noundef readonly byval(%"class.google::protobuf::compiler::rust::Context") align 8 %field) local_unnamed_addr #3 personality ptr @__gxx_personality_v0 {
entry:
  %ref.tmp = alloca %"class.std::unique_ptr", align 8
  %agg.tmp.sroa.1.0.field.sroa_idx = getelementptr inbounds i8, ptr %field, i64 8
  %agg.tmp.sroa.1.0.copyload = load ptr, ptr %agg.tmp.sroa.1.0.field.sroa_idx, align 8
  %agg.tmp.sroa.2.0.field.sroa_idx = getelementptr inbounds i8, ptr %field, i64 16
  %agg.tmp.sroa.2.0.copyload = load ptr, ptr %agg.tmp.sroa.2.0.field.sroa_idx, align 8
  call fastcc void @_ZN6google8protobuf8compiler4rust12_GLOBAL__N_120AccessorGeneratorForENS2_7ContextINS0_15FieldDescriptorEEE(ptr noalias nonnull align 8 %ref.tmp, ptr %agg.tmp.sroa.1.0.copyload, ptr %agg.tmp.sroa.2.0.copyload)
  %0 = load ptr, ptr %ref.tmp, align 8
  %vtable.i = load ptr, ptr %0, align 8
  %vfn.i = getelementptr inbounds i8, ptr %vtable.i, i64 24
  %1 = load ptr, ptr %vfn.i, align 8
  invoke void %1(ptr noundef nonnull align 8 dereferenceable(8) %0, ptr noundef nonnull byval(%"class.google::protobuf::compiler::rust::Context") align 8 %field)
          to label %_ZNSt10unique_ptrIN6google8protobuf8compiler4rust17AccessorGeneratorESt14default_deleteIS4_EED2Ev.exit unwind label %_ZNSt10unique_ptrIN6google8protobuf8compiler4rust17AccessorGeneratorESt14default_deleteIS4_EED2Ev.exit7

_ZNSt10unique_ptrIN6google8protobuf8compiler4rust17AccessorGeneratorESt14default_deleteIS4_EED2Ev.exit: ; preds = %entry
  %vtable.i.i = load ptr, ptr %0, align 8
  %vfn.i.i = getelementptr inbounds i8, ptr %vtable.i.i, i64 8
  %2 = load ptr, ptr %vfn.i.i, align 8
  tail call void %2(ptr noundef nonnull align 8 dereferenceable(8) %0) #13
  ret void

_ZNSt10unique_ptrIN6google8protobuf8compiler4rust17AccessorGeneratorESt14default_deleteIS4_EED2Ev.exit7: ; preds = %entry
  %3 = landingpad { ptr, i32 }
          cleanup
  %vtable.i.i5 = load ptr, ptr %0, align 8
  %vfn.i.i6 = getelementptr inbounds i8, ptr %vtable.i.i5, i64 8
  %4 = load ptr, ptr %vfn.i.i6, align 8
  tail call void %4(ptr noundef nonnull align 8 dereferenceable(8) %0) #13
  resume { ptr, i32 } %3
}